; Function Attrs: mustprogress uwtable
define hidden void @_ZN3euf14specrel_pluginC2ERNS_6egraphE(ptr noundef nonnull align 8 dereferenceable(72) %this, ptr noundef nonnull align 8 dereferenceable(536) %g) unnamed_addr #3 align 2 personality ptr @__gxx_personality_v0 {
invoke.cont:
  %g2.i = getelementptr inbounds i8, ptr %this, i64 8
  store ptr %g, ptr %g2.i, align 8
  store ptr getelementptr inbounds ({ [11 x ptr] }, ptr @_ZTVN3euf14specrel_pluginE, i64 0, i32 0, i64 2), ptr %this, align 8
  %m_plugins = getelementptr inbounds i8, ptr %this, i64 16
  tail call void @llvm.memset.p0.i64(ptr noundef nonnull align 8 dereferenceable(16) %m_plugins, i8 0, i64 16, i1 false)
  %call.i.i.i.i3 = invoke noalias noundef ptr @_ZN6memory8allocateEm(i64 noundef 128)
          to label %invoke.cont5 unwind label %lpad4

invoke.cont5:                                     ; preds = %invoke.cont
  %m_decl2plugin = getelementptr inbounds i8, ptr %this, i64 32
  tail call void @llvm.memset.p0.i64(ptr noundef nonnull align 8 dereferenceable(128) %call.i.i.i.i3, i8 0, i64 128, i1 false)
  store ptr %call.i.i.i.i3, ptr %m_decl2plugin, align 8
  %m_capacity.i.i = getelementptr inbounds i8, ptr %this, i64 40
  store i32 8, ptr %m_capacity.i.i, align 8
  %m_size.i.i = getelementptr inbounds i8, ptr %this, i64 44
  store i32 0, ptr %m_size.i.i, align 4
  %m_num_deleted.i.i = getelementptr inbounds i8, ptr %this, i64 48
  store i32 0, ptr %m_num_deleted.i.i, align 8
  %sp = getelementptr inbounds i8, ptr %this, i64 56
  %0 = load ptr, ptr %g, align 8
  store ptr %0, ptr %sp, align 8
  %m_fid.i = getelementptr inbounds i8, ptr %this, i64 64
  store i32 -1, ptr %m_fid.i, align 8
  ret void

lpad4:                                            ; preds = %invoke.cont
  %1 = landingpad { ptr, i32 }
          cleanup
  %m_undo = getelementptr inbounds i8, ptr %this, i64 24
  tail call void @_ZN10ptr_vectorIN3euf9ac_pluginEED2Ev(ptr noundef nonnull align 8 dereferenceable(8) %m_undo) #15
  tail call void @_ZN17scoped_ptr_vectorIN3euf9ac_pluginEED2Ev(ptr noundef nonnull align 8 dereferenceable(8) %m_plugins) #15
  resume { ptr, i32 } %1
}